; Function Attrs: nounwind uwtable
define dso_local range(i32 0, 2) i32 @valid_fetch_refspec(ptr noundef %0) local_unnamed_addr #0 {
  %2 = alloca %struct.refspec_item, align 8
  call void @llvm.lifetime.start.p0(i64 32, ptr nonnull %2) #13
  %3 = call i32 @refspec_item_init(ptr noundef nonnull %2, ptr noundef %0, i32 noundef 1)
  %4 = getelementptr inbounds nuw i8, ptr %2, i64 8
  %5 = load ptr, ptr %4, align 8, !tbaa !13
  tail call void @free(ptr noundef %5) #13
  %6 = getelementptr inbounds nuw i8, ptr %2, i64 16
  %7 = load ptr, ptr %6, align 8, !tbaa !12
  tail call void @free(ptr noundef %7) #13
  %8 = getelementptr inbounds nuw i8, ptr %2, i64 24
  %9 = load ptr, ptr %8, align 8, !tbaa !4
  tail call void @free(ptr noundef %9) #13
  call void @llvm.lifetime.end.p0(i64 32, ptr nonnull %2) #13
  ret i32 %3
}